target datalayout = "e-m:e-p270:32:32-p271:32:32-p272:64:64-i64:64-i128:128-f80:128-n8:16:32:64-S128"
target triple = "x86_64-pc-linux-gnu"

%"class.icu_77::UObject" = type { ptr }
%"class.icu_77::UnicodeSet" = type <{ %"class.icu_77::UnicodeFilter", ptr, i32, i32, i8, [7 x i8], ptr, ptr, i32, [4 x i8], ptr, i32, [4 x i8], ptr, ptr, [25 x i32], [4 x i8] }>
%"class.icu_77::UnicodeFilter" = type { %"class.icu_77::UnicodeFunctor", %"class.icu_77::UnicodeMatcher" }
%"class.icu_77::UnicodeFunctor" = type { %"class.icu_77::UObject" }
%"class.icu_77::UnicodeMatcher" = type { ptr }
%"class.icu_77::CheckResult" = type <{ %"class.icu_77::UObject", %"class.icu_77::IcuCApiHelper.1", i32, %"class.icu_77::UnicodeSet", i32, [4 x i8] }>
%"class.icu_77::IcuCApiHelper.1" = type { i32 }

; Function Attrs: mustprogress nounwind uwtable
define noundef i32 @_ZN6icu_7711CheckResult17toCombinedBitmaskEi(ptr noundef nonnull align 8 dereferenceable(220) %0, i32 noundef %1) #0 align 2 {
  %3 = alloca i32, align 4
  %4 = alloca ptr, align 8
  %5 = alloca i32, align 4
  store ptr %0, ptr %4, align 8, !tbaa !73
  store i32 %1, ptr %5, align 4, !tbaa !48
  %6 = load ptr, ptr %4, align 8
  %7 = load i32, ptr %5, align 4, !tbaa !48
  %8 = and i32 %7, 1073741824
  %9 = icmp ne i32 %8, 0
  br i1 %9, label %10, label %20

10:                                               ; preds = %2
  %11 = getelementptr inbounds nuw %"class.icu_77::CheckResult", ptr %6, i32 0, i32 4
  %12 = load i32, ptr %11, align 8, !tbaa !88
  %13 = icmp ne i32 %12, -1
  br i1 %13, label %14, label %20

14:                                               ; preds = %10
  %15 = getelementptr inbounds nuw %"class.icu_77::CheckResult", ptr %6, i32 0, i32 2
  %16 = load i32, ptr %15, align 4, !tbaa !79
  %17 = getelementptr inbounds nuw %"class.icu_77::CheckResult", ptr %6, i32 0, i32 4
  %18 = load i32, ptr %17, align 8, !tbaa !88
  %19 = or i32 %16, %18
  store i32 %19, ptr %3, align 4
  br label %23

20:                                               ; preds = %10, %2
  %21 = getelementptr inbounds nuw %"class.icu_77::CheckResult", ptr %6, i32 0, i32 2
  %22 = load i32, ptr %21, align 4, !tbaa !79
  store i32 %22, ptr %3, align 4
  br label %23

23:                                               ; preds = %20, %14
  %24 = load i32, ptr %3, align 4
  ret i32 %24
}