; Function Attrs: mustprogress nofree norecurse nosync nounwind willreturn memory(argmem: read) uwtable
define noundef i32 @_ZN6icu_7711CheckResult17toCombinedBitmaskEi(ptr noundef nonnull readonly align 8 captures(none) dereferenceable(220) %0, i32 noundef %1) local_unnamed_addr #11 align 2 {
  %3 = and i32 %1, 1073741824
  %.not = icmp eq i32 %3, 0
  br i1 %.not, label %11, label %4

4:                                                ; preds = %2
  %5 = getelementptr inbounds nuw i8, ptr %0, i64 216
  %6 = load i32, ptr %5, align 8, !tbaa !72
  %.not3 = icmp eq i32 %6, -1
  br i1 %.not3, label %11, label %7

7:                                                ; preds = %4
  %8 = getelementptr inbounds nuw i8, ptr %0, i64 12
  %9 = load i32, ptr %8, align 4, !tbaa !63
  %10 = or i32 %9, %6
  br label %14

11:                                               ; preds = %4, %2
  %12 = getelementptr inbounds nuw i8, ptr %0, i64 12
  %13 = load i32, ptr %12, align 4, !tbaa !63
  br label %14

14:                                               ; preds = %11, %7
  %.0 = phi i32 [ %10, %7 ], [ %13, %11 ]
  ret i32 %.0
}